target datalayout = "e-m:e-p270:32:32-p271:32:32-p272:64:64-i64:64-i128:128-f80:128-n8:16:32:64-S128"
target triple = "x86_64-pc-linux-gnu"

%struct.archive = type { i32, i32, ptr, i32, ptr, i32, i32, ptr, %struct.archive_string, ptr, i32, i32, ptr, ptr, i64, i64, i64, i8, i64 }
%struct.archive_string = type { ptr, i64, i64 }
%struct.archive_write_filter = type { i64, ptr, ptr, ptr, ptr, ptr, ptr, ptr, ptr, ptr, ptr, i32, i32, i32, i32 }
%struct.private_data = type { i64, i64, i64, i32, i32, i32, [69001 x i32], [69001 x i16], i32, i32, i32, i32, i32, i8, ptr, i64, i64 }

@.str.1 = private unnamed_addr constant [9 x i8] c"compress\00", align 1
@.str.2 = private unnamed_addr constant [36 x i8] c"Can't allocate data for compression\00", align 1
@.str.3 = private unnamed_addr constant [43 x i8] c"Can't allocate data for compression buffer\00", align 1

; Function Attrs: nounwind uwtable
define internal i32 @archive_compressor_compress_open(ptr noundef %0) #0 {
  %2 = alloca i32, align 4
  %3 = alloca ptr, align 8
  %4 = alloca ptr, align 8
  %5 = alloca i64, align 8
  %6 = alloca i64, align 8
  %7 = alloca i32, align 4
  store ptr %0, ptr %3, align 8, !tbaa !11
  call void @llvm.lifetime.start.p0(i64 8, ptr %4) #7
  call void @llvm.lifetime.start.p0(i64 8, ptr %5) #7
  store i64 65536, ptr %5, align 8, !tbaa !21
  call void @llvm.lifetime.start.p0(i64 8, ptr %6) #7
  %8 = load ptr, ptr %3, align 8, !tbaa !11
  %9 = getelementptr inbounds nuw %struct.archive_write_filter, ptr %8, i32 0, i32 11
  store i32 3, ptr %9, align 8, !tbaa !19
  %10 = load ptr, ptr %3, align 8, !tbaa !11
  %11 = getelementptr inbounds nuw %struct.archive_write_filter, ptr %10, i32 0, i32 10
  store ptr @.str.1, ptr %11, align 8, !tbaa !20
  %12 = call noalias ptr @calloc(i64 noundef 1, i64 noundef 414096) #8
  store ptr %12, ptr %4, align 8, !tbaa !22
  %13 = load ptr, ptr %4, align 8, !tbaa !22
  %14 = icmp eq ptr %13, null
  br i1 %14, label %15, label %19

15:                                               ; preds = %1
  %16 = load ptr, ptr %3, align 8, !tbaa !11
  %17 = getelementptr inbounds nuw %struct.archive_write_filter, ptr %16, i32 0, i32 1
  %18 = load ptr, ptr %17, align 8, !tbaa !24
  call void (ptr, i32, ptr, ...) @archive_set_error(ptr noundef %18, i32 noundef 12, ptr noundef @.str.2)
  store i32 -30, ptr %2, align 4
  store i32 1, ptr %7, align 4
  br label %119

19:                                               ; preds = %1
  %20 = load ptr, ptr %3, align 8, !tbaa !11
  %21 = getelementptr inbounds nuw %struct.archive_write_filter, ptr %20, i32 0, i32 1
  %22 = load ptr, ptr %21, align 8, !tbaa !24
  %23 = getelementptr inbounds nuw %struct.archive, ptr %22, i32 0, i32 0
  %24 = load i32, ptr %23, align 8, !tbaa !25
  %25 = icmp eq i32 %24, -1329217314
  br i1 %25, label %26, label %48

26:                                               ; preds = %19
  %27 = load ptr, ptr %3, align 8, !tbaa !11
  %28 = getelementptr inbounds nuw %struct.archive_write_filter, ptr %27, i32 0, i32 1
  %29 = load ptr, ptr %28, align 8, !tbaa !24
  %30 = call i32 @archive_write_get_bytes_per_block(ptr noundef %29)
  %31 = sext i32 %30 to i64
  store i64 %31, ptr %6, align 8, !tbaa !21
  %32 = load i64, ptr %6, align 8, !tbaa !21
  %33 = load i64, ptr %5, align 8, !tbaa !21
  %34 = icmp ugt i64 %32, %33
  br i1 %34, label %35, label %37

35:                                               ; preds = %26
  %36 = load i64, ptr %6, align 8, !tbaa !21
  store i64 %36, ptr %5, align 8, !tbaa !21
  br label %47

37:                                               ; preds = %26
  %38 = load i64, ptr %6, align 8, !tbaa !21
  %39 = icmp ne i64 %38, 0
  br i1 %39, label %40, label %46

40:                                               ; preds = %37
  %41 = load i64, ptr %5, align 8, !tbaa !21
  %42 = load i64, ptr %6, align 8, !tbaa !21
  %43 = urem i64 %41, %42
  %44 = load i64, ptr %5, align 8, !tbaa !21
  %45 = sub i64 %44, %43
  store i64 %45, ptr %5, align 8, !tbaa !21
  br label %46

46:                                               ; preds = %40, %37
  br label %47

47:                                               ; preds = %46, %35
  br label %48

48:                                               ; preds = %47, %19
  %49 = load i64, ptr %5, align 8, !tbaa !21
  %50 = load ptr, ptr %4, align 8, !tbaa !22
  %51 = getelementptr inbounds nuw %struct.private_data, ptr %50, i32 0, i32 15
  store i64 %49, ptr %51, align 8, !tbaa !30
  %52 = load ptr, ptr %4, align 8, !tbaa !22
  %53 = getelementptr inbounds nuw %struct.private_data, ptr %52, i32 0, i32 15
  %54 = load i64, ptr %53, align 8, !tbaa !30
  %55 = call noalias ptr @malloc(i64 noundef %54) #9
  %56 = load ptr, ptr %4, align 8, !tbaa !22
  %57 = getelementptr inbounds nuw %struct.private_data, ptr %56, i32 0, i32 14
  store ptr %55, ptr %57, align 8, !tbaa !32
  %58 = load ptr, ptr %4, align 8, !tbaa !22
  %59 = getelementptr inbounds nuw %struct.private_data, ptr %58, i32 0, i32 14
  %60 = load ptr, ptr %59, align 8, !tbaa !32
  %61 = icmp eq ptr %60, null
  br i1 %61, label %62, label %67

62:                                               ; preds = %48
  %63 = load ptr, ptr %3, align 8, !tbaa !11
  %64 = getelementptr inbounds nuw %struct.archive_write_filter, ptr %63, i32 0, i32 1
  %65 = load ptr, ptr %64, align 8, !tbaa !24
  call void (ptr, i32, ptr, ...) @archive_set_error(ptr noundef %65, i32 noundef 12, ptr noundef @.str.3)
  %66 = load ptr, ptr %4, align 8, !tbaa !22
  call void @free(ptr noundef %66) #7
  store i32 -30, ptr %2, align 4
  store i32 1, ptr %7, align 4
  br label %119

67:                                               ; preds = %48
  %68 = load ptr, ptr %3, align 8, !tbaa !11
  %69 = getelementptr inbounds nuw %struct.archive_write_filter, ptr %68, i32 0, i32 5
  store ptr @archive_compressor_compress_write, ptr %69, align 8, !tbaa !33
  %70 = load ptr, ptr %3, align 8, !tbaa !11
  %71 = getelementptr inbounds nuw %struct.archive_write_filter, ptr %70, i32 0, i32 7
  store ptr @archive_compressor_compress_close, ptr %71, align 8, !tbaa !34
  %72 = load ptr, ptr %3, align 8, !tbaa !11
  %73 = getelementptr inbounds nuw %struct.archive_write_filter, ptr %72, i32 0, i32 8
  store ptr @archive_compressor_compress_free, ptr %73, align 8, !tbaa !35
  %74 = load ptr, ptr %4, align 8, !tbaa !22
  %75 = getelementptr inbounds nuw %struct.private_data, ptr %74, i32 0, i32 5
  store i32 65536, ptr %75, align 8, !tbaa !36
  %76 = load ptr, ptr %4, align 8, !tbaa !22
  %77 = getelementptr inbounds nuw %struct.private_data, ptr %76, i32 0, i32 0
  store i64 0, ptr %77, align 8, !tbaa !37
  %78 = load ptr, ptr %4, align 8, !tbaa !22
  %79 = getelementptr inbounds nuw %struct.private_data, ptr %78, i32 0, i32 13
  store i8 0, ptr %79, align 8, !tbaa !38
  %80 = load ptr, ptr %4, align 8, !tbaa !22
  %81 = getelementptr inbounds nuw %struct.private_data, ptr %80, i32 0, i32 12
  store i32 0, ptr %81, align 4, !tbaa !39
  %82 = load ptr, ptr %4, align 8, !tbaa !22
  %83 = getelementptr inbounds nuw %struct.private_data, ptr %82, i32 0, i32 1
  store i64 3, ptr %83, align 8, !tbaa !40
  %84 = load ptr, ptr %4, align 8, !tbaa !22
  %85 = getelementptr inbounds nuw %struct.private_data, ptr %84, i32 0, i32 9
  store i32 0, ptr %85, align 8, !tbaa !41
  %86 = load ptr, ptr %4, align 8, !tbaa !22
  %87 = getelementptr inbounds nuw %struct.private_data, ptr %86, i32 0, i32 2
  store i64 10000, ptr %87, align 8, !tbaa !42
  %88 = load ptr, ptr %4, align 8, !tbaa !22
  %89 = getelementptr inbounds nuw %struct.private_data, ptr %88, i32 0, i32 3
  store i32 9, ptr %89, align 8, !tbaa !43
  %90 = load ptr, ptr %4, align 8, !tbaa !22
  %91 = getelementptr inbounds nuw %struct.private_data, ptr %90, i32 0, i32 3
  %92 = load i32, ptr %91, align 8, !tbaa !43
  %93 = shl i32 1, %92
  %94 = sub nsw i32 %93, 1
  %95 = load ptr, ptr %4, align 8, !tbaa !22
  %96 = getelementptr inbounds nuw %struct.private_data, ptr %95, i32 0, i32 4
  store i32 %94, ptr %96, align 4, !tbaa !44
  %97 = load ptr, ptr %4, align 8, !tbaa !22
  %98 = getelementptr inbounds nuw %struct.private_data, ptr %97, i32 0, i32 8
  store i32 257, ptr %98, align 4, !tbaa !45
  %99 = load ptr, ptr %4, align 8, !tbaa !22
  %100 = getelementptr inbounds nuw %struct.private_data, ptr %99, i32 0, i32 6
  %101 = getelementptr inbounds [69001 x i32], ptr %100, i64 0, i64 0
  call void @llvm.memset.p0.i64(ptr align 4 %101, i8 -1, i64 276004, i1 false)
  %102 = load ptr, ptr %4, align 8, !tbaa !22
  %103 = getelementptr inbounds nuw %struct.private_data, ptr %102, i32 0, i32 14
  %104 = load ptr, ptr %103, align 8, !tbaa !32
  %105 = getelementptr inbounds i8, ptr %104, i64 0
  store i8 31, ptr %105, align 1, !tbaa !46
  %106 = load ptr, ptr %4, align 8, !tbaa !22
  %107 = getelementptr inbounds nuw %struct.private_data, ptr %106, i32 0, i32 14
  %108 = load ptr, ptr %107, align 8, !tbaa !32
  %109 = getelementptr inbounds i8, ptr %108, i64 1
  store i8 -99, ptr %109, align 1, !tbaa !46
  %110 = load ptr, ptr %4, align 8, !tbaa !22
  %111 = getelementptr inbounds nuw %struct.private_data, ptr %110, i32 0, i32 14
  %112 = load ptr, ptr %111, align 8, !tbaa !32
  %113 = getelementptr inbounds i8, ptr %112, i64 2
  store i8 -112, ptr %113, align 1, !tbaa !46
  %114 = load ptr, ptr %4, align 8, !tbaa !22
  %115 = getelementptr inbounds nuw %struct.private_data, ptr %114, i32 0, i32 16
  store i64 3, ptr %115, align 8, !tbaa !47
  %116 = load ptr, ptr %4, align 8, !tbaa !22
  %117 = load ptr, ptr %3, align 8, !tbaa !11
  %118 = getelementptr inbounds nuw %struct.archive_write_filter, ptr %117, i32 0, i32 9
  store ptr %116, ptr %118, align 8, !tbaa !48
  store i32 0, ptr %2, align 4
  store i32 1, ptr %7, align 4
  br label %119

119:                                              ; preds = %67, %62, %15
  call void @llvm.lifetime.end.p0(i64 8, ptr %6) #7
  call void @llvm.lifetime.end.p0(i64 8, ptr %5) #7
  call void @llvm.lifetime.end.p0(i64 8, ptr %4) #7
  %120 = load i32, ptr %2, align 4
  ret i32 %120
}