; Function Attrs: nounwind uwtable
define internal range(i32 -30, 1) i32 @archive_compressor_compress_open(ptr noundef captures(none) initializes((80, 92)) %0) #0 {
  %2 = getelementptr inbounds nuw i8, ptr %0, i64 88
  store i32 3, ptr %2, align 8, !tbaa !14
  %3 = getelementptr inbounds nuw i8, ptr %0, i64 80
  store ptr @.str.1, ptr %3, align 8, !tbaa !15
  %4 = tail call noalias dereferenceable_or_null(414096) ptr @calloc(i64 noundef 1, i64 noundef 414096) #8
  %5 = icmp eq ptr %4, null
  %6 = getelementptr inbounds nuw i8, ptr %0, i64 8
  %7 = load ptr, ptr %6, align 8, !tbaa !16
  br i1 %5, label %8, label %9

8:                                                ; preds = %1
  tail call void (ptr, i32, ptr, ...) @archive_set_error(ptr noundef %7, i32 noundef 12, ptr noundef nonnull @.str.2) #7
  br label %42

9:                                                ; preds = %1
  %10 = load i32, ptr %7, align 8, !tbaa !17
  %11 = icmp eq i32 %10, -1329217314
  br i1 %11, label %12, label %20

12:                                               ; preds = %9
  %13 = tail call i32 @archive_write_get_bytes_per_block(ptr noundef nonnull %7) #7
  %14 = sext i32 %13 to i64
  %15 = icmp ugt i32 %13, 65536
  br i1 %15, label %20, label %16

16:                                               ; preds = %12
  %.not = icmp eq i32 %13, 0
  br i1 %.not, label %20, label %17

17:                                               ; preds = %16
  %18 = urem i64 65536, %14
  %19 = sub nuw nsw i64 65536, %18
  br label %20

20:                                               ; preds = %12, %17, %16, %9
  %.041 = phi i64 [ %19, %17 ], [ 65536, %16 ], [ 65536, %9 ], [ %14, %12 ]
  %21 = getelementptr inbounds nuw i8, ptr %4, i64 414080
  store i64 %.041, ptr %21, align 8, !tbaa !22
  %22 = tail call noalias ptr @malloc(i64 noundef %.041) #9
  %23 = getelementptr inbounds nuw i8, ptr %4, i64 414072
  store ptr %22, ptr %23, align 8, !tbaa !24
  %24 = icmp eq ptr %22, null
  br i1 %24, label %25, label %27

25:                                               ; preds = %20
  %26 = load ptr, ptr %6, align 8, !tbaa !16
  tail call void (ptr, i32, ptr, ...) @archive_set_error(ptr noundef %26, i32 noundef 12, ptr noundef nonnull @.str.3) #7
  tail call void @free(ptr noundef nonnull %4) #7
  br label %42

27:                                               ; preds = %20
  %28 = getelementptr inbounds nuw i8, ptr %0, i64 40
  store ptr @archive_compressor_compress_write, ptr %28, align 8, !tbaa !25
  %29 = getelementptr inbounds nuw i8, ptr %0, i64 56
  store ptr @archive_compressor_compress_close, ptr %29, align 8, !tbaa !26
  %30 = getelementptr inbounds nuw i8, ptr %0, i64 64
  store ptr @archive_compressor_compress_free, ptr %30, align 8, !tbaa !27
  %31 = getelementptr inbounds nuw i8, ptr %4, i64 32
  store i32 65536, ptr %31, align 8, !tbaa !28
  %32 = getelementptr inbounds nuw i8, ptr %4, i64 8
  store i64 3, ptr %32, align 8, !tbaa !29
  %33 = getelementptr inbounds nuw i8, ptr %4, i64 16
  store i64 10000, ptr %33, align 8, !tbaa !30
  %34 = getelementptr inbounds nuw i8, ptr %4, i64 24
  store i32 9, ptr %34, align 8, !tbaa !31
  %35 = getelementptr inbounds nuw i8, ptr %4, i64 28
  store i32 511, ptr %35, align 4, !tbaa !32
  %36 = getelementptr inbounds nuw i8, ptr %4, i64 414044
  store i32 257, ptr %36, align 4, !tbaa !33
  %37 = getelementptr inbounds nuw i8, ptr %4, i64 36
  tail call void @llvm.memset.p0.i64(ptr noundef nonnull align 4 dereferenceable(276004) %37, i8 -1, i64 276004, i1 false)
  store i8 31, ptr %22, align 1, !tbaa !34
  %38 = getelementptr inbounds nuw i8, ptr %22, i64 1
  store i8 -99, ptr %38, align 1, !tbaa !34
  %39 = getelementptr inbounds nuw i8, ptr %22, i64 2
  store i8 -112, ptr %39, align 1, !tbaa !34
  %40 = getelementptr inbounds nuw i8, ptr %4, i64 414088
  store i64 3, ptr %40, align 8, !tbaa !35
  %41 = getelementptr inbounds nuw i8, ptr %0, i64 72
  store ptr %4, ptr %41, align 8, !tbaa !36
  br label %42

42:                                               ; preds = %27, %25, %8
  %.0 = phi i32 [ -30, %8 ], [ -30, %25 ], [ 0, %27 ]
  ret i32 %.0
}